; Function Attrs: nounwind uwtable
define internal zeroext i1 @_check_file(ptr noundef %0, ptr noundef %1) #0 {
  %3 = alloca %struct.stat, align 8
  call void @llvm.lifetime.start.p0(i64 144, ptr nonnull %3) #16
  %4 = tail call i32 @strncmp(ptr noundef nonnull dereferenceable(1) %1, ptr noundef nonnull dereferenceable(8) @.str.46, i64 noundef 7) #20
  %5 = icmp eq i32 %4, 0
  br i1 %5, label %6, label %12

6:                                                ; preds = %2
  call void @llvm.memset.p0.i64(ptr noundef nonnull align 8 dereferenceable(144) %3, i8 0, i64 144, i1 false)
  %7 = tail call noalias ptr (i32, ...) @pmix_os_path(i32 noundef 0, ptr noundef %0, ptr noundef nonnull %1, ptr noundef null) #16
  %8 = call i32 @stat(ptr noundef %7, ptr noundef nonnull %3) #16
  tail call void @free(ptr noundef %7) #16
  %9 = getelementptr inbounds nuw i8, ptr %3, i64 48
  %10 = load i64, ptr %9, align 8, !tbaa !157
  %11 = icmp eq i64 %10, 0
  br label %12

12:                                               ; preds = %2, %6
  %.0 = phi i1 [ %11, %6 ], [ true, %2 ]
  call void @llvm.lifetime.end.p0(i64 144, ptr nonnull %3) #16
  ret i1 %.0
}